target datalayout = "e-m:e-p270:32:32-p271:32:32-p272:64:64-i64:64-i128:128-f80:128-n8:16:32:64-S128"
target triple = "x86_64-pc-linux-gnu"

%struct.port = type { %struct.pointf_s, double, ptr, i8, i8, i8, i8, i8, i8, ptr }
%struct.pointf_s = type { double, double }

; Function Attrs: nounwind uwtable
define i32 @portcmp(ptr noundef byval(%struct.port) align 8 %0, ptr noundef byval(%struct.port) align 8 %1) #0 {
  %3 = alloca i32, align 4
  %4 = getelementptr inbounds nuw %struct.port, ptr %1, i32 0, i32 3
  %5 = load i8, ptr %4, align 8, !tbaa !3, !range !12, !noundef !13
  %6 = trunc i8 %5 to i1
  br i1 %6, label %12, label %7

7:                                                ; preds = %2
  %8 = getelementptr inbounds nuw %struct.port, ptr %0, i32 0, i32 3
  %9 = load i8, ptr %8, align 8, !tbaa !3, !range !12, !noundef !13
  %10 = trunc i8 %9 to i1
  %11 = select i1 %10, i32 1, i32 0
  store i32 %11, ptr %3, align 4
  br label %54

12:                                               ; preds = %2
  %13 = getelementptr inbounds nuw %struct.port, ptr %0, i32 0, i32 3
  %14 = load i8, ptr %13, align 8, !tbaa !3, !range !12, !noundef !13
  %15 = trunc i8 %14 to i1
  br i1 %15, label %17, label %16

16:                                               ; preds = %12
  store i32 -1, ptr %3, align 4
  br label %54

17:                                               ; preds = %12
  %18 = getelementptr inbounds nuw %struct.port, ptr %0, i32 0, i32 0
  %19 = getelementptr inbounds nuw %struct.pointf_s, ptr %18, i32 0, i32 0
  %20 = load double, ptr %19, align 8, !tbaa !14
  %21 = getelementptr inbounds nuw %struct.port, ptr %1, i32 0, i32 0
  %22 = getelementptr inbounds nuw %struct.pointf_s, ptr %21, i32 0, i32 0
  %23 = load double, ptr %22, align 8, !tbaa !14
  %24 = fcmp olt double %20, %23
  br i1 %24, label %25, label %26

25:                                               ; preds = %17
  store i32 -1, ptr %3, align 4
  br label %54

26:                                               ; preds = %17
  %27 = getelementptr inbounds nuw %struct.port, ptr %0, i32 0, i32 0
  %28 = getelementptr inbounds nuw %struct.pointf_s, ptr %27, i32 0, i32 0
  %29 = load double, ptr %28, align 8, !tbaa !14
  %30 = getelementptr inbounds nuw %struct.port, ptr %1, i32 0, i32 0
  %31 = getelementptr inbounds nuw %struct.pointf_s, ptr %30, i32 0, i32 0
  %32 = load double, ptr %31, align 8, !tbaa !14
  %33 = fcmp ogt double %29, %32
  br i1 %33, label %34, label %35

34:                                               ; preds = %26
  store i32 1, ptr %3, align 4
  br label %54

35:                                               ; preds = %26
  %36 = getelementptr inbounds nuw %struct.port, ptr %0, i32 0, i32 0
  %37 = getelementptr inbounds nuw %struct.pointf_s, ptr %36, i32 0, i32 1
  %38 = load double, ptr %37, align 8, !tbaa !15
  %39 = getelementptr inbounds nuw %struct.port, ptr %1, i32 0, i32 0
  %40 = getelementptr inbounds nuw %struct.pointf_s, ptr %39, i32 0, i32 1
  %41 = load double, ptr %40, align 8, !tbaa !15
  %42 = fcmp olt double %38, %41
  br i1 %42, label %43, label %44

43:                                               ; preds = %35
  store i32 -1, ptr %3, align 4
  br label %54

44:                                               ; preds = %35
  %45 = getelementptr inbounds nuw %struct.port, ptr %0, i32 0, i32 0
  %46 = getelementptr inbounds nuw %struct.pointf_s, ptr %45, i32 0, i32 1
  %47 = load double, ptr %46, align 8, !tbaa !15
  %48 = getelementptr inbounds nuw %struct.port, ptr %1, i32 0, i32 0
  %49 = getelementptr inbounds nuw %struct.pointf_s, ptr %48, i32 0, i32 1
  %50 = load double, ptr %49, align 8, !tbaa !15
  %51 = fcmp ogt double %47, %50
  br i1 %51, label %52, label %53

52:                                               ; preds = %44
  store i32 1, ptr %3, align 4
  br label %54

53:                                               ; preds = %44
  store i32 0, ptr %3, align 4
  br label %54

54:                                               ; preds = %53, %52, %43, %34, %25, %16, %7
  %55 = load i32, ptr %3, align 4
  ret i32 %55
}