; Function Attrs: mustprogress nofree norecurse nosync nounwind willreturn memory(argmem: read) uwtable
define range(i32 -1, 2) i32 @portcmp(ptr noundef readonly byval(%struct.port) align 8 captures(none) %0, ptr noundef readonly byval(%struct.port) align 8 captures(none) %1) local_unnamed_addr #0 {
  %3 = getelementptr inbounds nuw i8, ptr %1, i64 32
  %4 = load i8, ptr %3, align 8, !tbaa !3, !range !12, !noundef !13
  %5 = trunc nuw i8 %4 to i1
  %6 = getelementptr inbounds nuw i8, ptr %0, i64 32
  %7 = load i8, ptr %6, align 8, !tbaa !3, !range !12, !noundef !13
  br i1 %5, label %10, label %8

8:                                                ; preds = %2
  %9 = zext nneg i8 %7 to i32
  br label %26

10:                                               ; preds = %2
  %11 = trunc nuw i8 %7 to i1
  br i1 %11, label %12, label %26

12:                                               ; preds = %10
  %13 = load double, ptr %0, align 8, !tbaa !14
  %14 = load double, ptr %1, align 8, !tbaa !14
  %15 = fcmp olt double %13, %14
  br i1 %15, label %26, label %16

16:                                               ; preds = %12
  %17 = fcmp ogt double %13, %14
  br i1 %17, label %26, label %18

18:                                               ; preds = %16
  %19 = getelementptr inbounds nuw i8, ptr %0, i64 8
  %20 = load double, ptr %19, align 8, !tbaa !15
  %21 = getelementptr inbounds nuw i8, ptr %1, i64 8
  %22 = load double, ptr %21, align 8, !tbaa !15
  %23 = fcmp olt double %20, %22
  br i1 %23, label %26, label %24

24:                                               ; preds = %18
  %25 = fcmp ogt double %20, %22
  %. = zext i1 %25 to i32
  br label %26

26:                                               ; preds = %24, %18, %16, %12, %10, %8
  %.0 = phi i32 [ %9, %8 ], [ -1, %10 ], [ -1, %12 ], [ 1, %16 ], [ -1, %18 ], [ %., %24 ]
  ret i32 %.0
}